; Listing generated by Microsoft (R) Optimizing Compiler Version 19.16.27026.1 

	TITLE	D:\Workspace\Training\Qualcomm\SepBatch2\12Sep2019\12Sep2019\namingConvension.cpp
	.686P
	.XMM
	include listing.inc
	.model	flat

INCLUDELIB MSVCRTD
INCLUDELIB OLDNAMES

msvcjmc	SEGMENT
__ABDA39A2_namingconvension@cpp DB 01H
msvcjmc	ENDS
PUBLIC	?fun@@YAXXZ					; fun
PUBLIC	?fun@@YAXH@Z					; fun
PUBLIC	?fun@@YAXM@Z					; fun
PUBLIC	?fun@@YAXD@Z					; fun
PUBLIC	?fun@@YAXPAD@Z					; fun
PUBLIC	_main
PUBLIC	__JustMyCode_Default
EXTRN	@__CheckForDebuggerJustMyCode@4:PROC
EXTRN	__RTC_CheckEsp:PROC
EXTRN	__RTC_InitBase:PROC
EXTRN	__RTC_Shutdown:PROC
;	COMDAT rtc$TMZ
rtc$TMZ	SEGMENT
__RTC_Shutdown.rtc$TMZ DD FLAT:__RTC_Shutdown
rtc$TMZ	ENDS
;	COMDAT rtc$IMZ
rtc$IMZ	SEGMENT
__RTC_InitBase.rtc$IMZ DD FLAT:__RTC_InitBase
rtc$IMZ	ENDS
; Function compile flags: /Odt
;	COMDAT __JustMyCode_Default
_TEXT	SEGMENT
__JustMyCode_Default PROC				; COMDAT
	push	ebp
	mov	ebp, esp
	pop	ebp
	ret	0
__JustMyCode_Default ENDP
_TEXT	ENDS
; Function compile flags: /Odtp /RTCsu /ZI
; File d:\workspace\training\qualcomm\sepbatch2\12sep2019\12sep2019\namingconvension.cpp
;	COMDAT _main
_TEXT	SEGMENT
_main	PROC						; COMDAT

; 39   : int main() {

	push	ebp
	mov	ebp, esp
	sub	esp, 192				; 000000c0H
	push	ebx
	push	esi
	push	edi
	lea	edi, DWORD PTR [ebp-192]
	mov	ecx, 48					; 00000030H
	mov	eax, -858993460				; ccccccccH
	rep stosd
	mov	ecx, OFFSET __ABDA39A2_namingconvension@cpp
	call	@__CheckForDebuggerJustMyCode@4

; 40   : 	fun();

	call	?fun@@YAXXZ				; fun

; 41   : 	fun(10);

	push	10					; 0000000aH
	call	?fun@@YAXH@Z				; fun
	add	esp, 4

; 42   : }

	xor	eax, eax
	pop	edi
	pop	esi
	pop	ebx
	add	esp, 192				; 000000c0H
	cmp	ebp, esp
	call	__RTC_CheckEsp
	mov	esp, ebp
	pop	ebp
	ret	0
_main	ENDP
_TEXT	ENDS
; Function compile flags: /Odtp /RTCsu /ZI
; File d:\workspace\training\qualcomm\sepbatch2\12sep2019\12sep2019\namingconvension.cpp
;	COMDAT ?fun@@YAXPAD@Z
_TEXT	SEGMENT
___formal$ = 8						; size = 4
?fun@@YAXPAD@Z PROC					; fun, COMDAT

; 32   : 	void fun(char *) {}

	push	ebp
	mov	ebp, esp
	sub	esp, 192				; 000000c0H
	push	ebx
	push	esi
	push	edi
	lea	edi, DWORD PTR [ebp-192]
	mov	ecx, 48					; 00000030H
	mov	eax, -858993460				; ccccccccH
	rep stosd
	mov	ecx, OFFSET __ABDA39A2_namingconvension@cpp
	call	@__CheckForDebuggerJustMyCode@4
	pop	edi
	pop	esi
	pop	ebx
	add	esp, 192				; 000000c0H
	cmp	ebp, esp
	call	__RTC_CheckEsp
	mov	esp, ebp
	pop	ebp
	ret	0
?fun@@YAXPAD@Z ENDP					; fun
_TEXT	ENDS
; Function compile flags: /Odtp /RTCsu /ZI
; File d:\workspace\training\qualcomm\sepbatch2\12sep2019\12sep2019\namingconvension.cpp
;	COMDAT ?fun@@YAXD@Z
_TEXT	SEGMENT
___formal$ = 8						; size = 1
?fun@@YAXD@Z PROC					; fun, COMDAT

; 25   : 	void fun(char) {}

	push	ebp
	mov	ebp, esp
	sub	esp, 192				; 000000c0H
	push	ebx
	push	esi
	push	edi
	lea	edi, DWORD PTR [ebp-192]
	mov	ecx, 48					; 00000030H
	mov	eax, -858993460				; ccccccccH
	rep stosd
	mov	ecx, OFFSET __ABDA39A2_namingconvension@cpp
	call	@__CheckForDebuggerJustMyCode@4
	pop	edi
	pop	esi
	pop	ebx
	add	esp, 192				; 000000c0H
	cmp	ebp, esp
	call	__RTC_CheckEsp
	mov	esp, ebp
	pop	ebp
	ret	0
?fun@@YAXD@Z ENDP					; fun
_TEXT	ENDS
; Function compile flags: /Odtp /RTCsu /ZI
; File d:\workspace\training\qualcomm\sepbatch2\12sep2019\12sep2019\namingconvension.cpp
;	COMDAT ?fun@@YAXM@Z
_TEXT	SEGMENT
___formal$ = 8						; size = 4
?fun@@YAXM@Z PROC					; fun, COMDAT

; 18   : 	void fun(float) {}

	push	ebp
	mov	ebp, esp
	sub	esp, 192				; 000000c0H
	push	ebx
	push	esi
	push	edi
	lea	edi, DWORD PTR [ebp-192]
	mov	ecx, 48					; 00000030H
	mov	eax, -858993460				; ccccccccH
	rep stosd
	mov	ecx, OFFSET __ABDA39A2_namingconvension@cpp
	call	@__CheckForDebuggerJustMyCode@4
	pop	edi
	pop	esi
	pop	ebx
	add	esp, 192				; 000000c0H
	cmp	ebp, esp
	call	__RTC_CheckEsp
	mov	esp, ebp
	pop	ebp
	ret	0
?fun@@YAXM@Z ENDP					; fun
_TEXT	ENDS
; Function compile flags: /Odtp /RTCsu /ZI
; File d:\workspace\training\qualcomm\sepbatch2\12sep2019\12sep2019\namingconvension.cpp
;	COMDAT ?fun@@YAXH@Z
_TEXT	SEGMENT
___formal$ = 8						; size = 4
?fun@@YAXH@Z PROC					; fun, COMDAT

; 9    : 	void fun(int) {}

	push	ebp
	mov	ebp, esp
	sub	esp, 192				; 000000c0H
	push	ebx
	push	esi
	push	edi
	lea	edi, DWORD PTR [ebp-192]
	mov	ecx, 48					; 00000030H
	mov	eax, -858993460				; ccccccccH
	rep stosd
	mov	ecx, OFFSET __ABDA39A2_namingconvension@cpp
	call	@__CheckForDebuggerJustMyCode@4
	pop	edi
	pop	esi
	pop	ebx
	add	esp, 192				; 000000c0H
	cmp	ebp, esp
	call	__RTC_CheckEsp
	mov	esp, ebp
	pop	ebp
	ret	0
?fun@@YAXH@Z ENDP					; fun
_TEXT	ENDS
; Function compile flags: /Odtp /RTCsu /ZI
; File d:\workspace\training\qualcomm\sepbatch2\12sep2019\12sep2019\namingconvension.cpp
;	COMDAT ?fun@@YAXXZ
_TEXT	SEGMENT
?fun@@YAXXZ PROC					; fun, COMDAT

; 2    : void fun(void) {}

	push	ebp
	mov	ebp, esp
	sub	esp, 192				; 000000c0H
	push	ebx
	push	esi
	push	edi
	lea	edi, DWORD PTR [ebp-192]
	mov	ecx, 48					; 00000030H
	mov	eax, -858993460				; ccccccccH
	rep stosd
	mov	ecx, OFFSET __ABDA39A2_namingconvension@cpp
	call	@__CheckForDebuggerJustMyCode@4
	pop	edi
	pop	esi
	pop	ebx
	add	esp, 192				; 000000c0H
	cmp	ebp, esp
	call	__RTC_CheckEsp
	mov	esp, ebp
	pop	ebp
	ret	0
?fun@@YAXXZ ENDP					; fun
_TEXT	ENDS
END
